target datalayout = "e-m:e-p270:32:32-p271:32:32-p272:64:64-i64:64-i128:128-f80:128-n8:16:32:64-S128"
target triple = "x86_64-unknown-linux-gnu"

@.str = private unnamed_addr constant [121 x i8] c"generated/home/dtcxzyw/WorkSpace/Projects/compilers/llvm-opt-benchmark/bench/z3/z3/src/ast/simplifiers/bound_manager.cpp\00", align 1
@.str.1 = private unnamed_addr constant [29 x i8] c"UNEXPECTED CODE WAS REACHED.\00", align 1

; Function Attrs: mustprogress uwtable
define hidden noundef i32 @_ZN13bound_manager3negEi(i32 noundef %k) #4 align 2 {
entry:
  %retval = alloca i32, align 4
  %k.addr = alloca i32, align 4
  store i32 %k, ptr %k.addr, align 4
  %0 = load i32, ptr %k.addr, align 4
  switch i32 %0, label %sw.default [
    i32 2, label %sw.bb
    i32 4, label %sw.bb1
    i32 3, label %sw.bb2
    i32 5, label %sw.bb3
  ]

sw.bb:                                            ; preds = %entry
  store i32 5, ptr %retval, align 4
  br label %return

sw.bb1:                                           ; preds = %entry
  store i32 3, ptr %retval, align 4
  br label %return

sw.bb2:                                           ; preds = %entry
  store i32 4, ptr %retval, align 4
  br label %return

sw.bb3:                                           ; preds = %entry
  store i32 2, ptr %retval, align 4
  br label %return

sw.default:                                       ; preds = %entry
  call void @_Z26notify_assertion_violationPKciS0_(ptr noundef @.str, i32 noundef 66, ptr noundef @.str.1)
  call void @exit(i32 noundef 114) #11
  unreachable

return:                                           ; preds = %sw.bb3, %sw.bb2, %sw.bb1, %sw.bb
  %1 = load i32, ptr %retval, align 4
  ret i32 %1
}