; Function Attrs: mustprogress uwtable
define hidden noundef i32 @_ZN13bound_manager3negEi(i32 noundef %k) local_unnamed_addr #3 align 2 {
entry:
  %switch.tableidx = add i32 %k, -2
  %0 = icmp ult i32 %switch.tableidx, 4
  br i1 %0, label %switch.lookup, label %sw.default

sw.default:                                       ; preds = %entry
  tail call void @_Z26notify_assertion_violationPKciS0_(ptr noundef nonnull @.str, i32 noundef 66, ptr noundef nonnull @.str.1)
  tail call void @exit(i32 noundef 114) #14
  unreachable

switch.lookup:                                    ; preds = %entry
  %switch.offset = xor i32 %k, 7
  ret i32 %switch.offset
}